In archive libfemtoc.a:

print.o:     file format elf32-littleriscv


Disassembly of section .text:

00000000 <putchar>:
   0:	06000737          	lui	a4,0x6000

00000004 <.L2>:
   4:	00072783          	lw	a5,0(a4) # 6000000 <.L50+0x5fffe58>
   8:	fe078ee3          	beqz	a5,4 <.L2>
   c:	00a72023          	sw	a0,0(a4)
  10:	00008067          	ret

00000014 <print_string>:
  14:	00054683          	lbu	a3,0(a0)
  18:	02068063          	beqz	a3,38 <.L6>
  1c:	06000737          	lui	a4,0x6000

00000020 <.L8>:
  20:	00072783          	lw	a5,0(a4) # 6000000 <.L50+0x5fffe58>
  24:	fe078ee3          	beqz	a5,20 <.L8>
  28:	00d72023          	sw	a3,0(a4)
  2c:	00154683          	lbu	a3,1(a0)
  30:	00150513          	add	a0,a0,1
  34:	fe0696e3          	bnez	a3,20 <.L8>

00000038 <.L6>:
  38:	00008067          	ret

0000003c <puts>:
  3c:	00054683          	lbu	a3,0(a0)
  40:	02068063          	beqz	a3,60 <.L17>
  44:	06000737          	lui	a4,0x6000

00000048 <.L18>:
  48:	00072783          	lw	a5,0(a4) # 6000000 <.L50+0x5fffe58>
  4c:	fe078ee3          	beqz	a5,48 <.L18>
  50:	00d72023          	sw	a3,0(a4)
  54:	00154683          	lbu	a3,1(a0)
  58:	00150513          	add	a0,a0,1
  5c:	fe0696e3          	bnez	a3,48 <.L18>

00000060 <.L17>:
  60:	06000737          	lui	a4,0x6000

00000064 <.L20>:
  64:	00072783          	lw	a5,0(a4) # 6000000 <.L50+0x5fffe58>
  68:	fe078ee3          	beqz	a5,64 <.L20>
  6c:	00a00793          	li	a5,10
  70:	00f72023          	sw	a5,0(a4)
  74:	00100513          	li	a0,1
  78:	00008067          	ret

0000007c <print_dec>:
  7c:	ef010113          	add	sp,sp,-272
  80:	10812423          	sw	s0,264(sp)
  84:	10112623          	sw	ra,268(sp)
  88:	10912223          	sw	s1,260(sp)
  8c:	11212023          	sw	s2,256(sp)
  90:	00050413          	mv	s0,a0
  94:	06000737          	lui	a4,0x6000
  98:	00055c63          	bgez	a0,b0 <.L32>

0000009c <.L30>:
  9c:	00072783          	lw	a5,0(a4) # 6000000 <.L50+0x5fffe58>
  a0:	fe078ee3          	beqz	a5,9c <.L30>
  a4:	02d00793          	li	a5,45
  a8:	00f72023          	sw	a5,0(a4)
  ac:	40800433          	neg	s0,s0

000000b0 <.L32>:
  b0:	00010913          	mv	s2,sp
  b4:	00090493          	mv	s1,s2
  b8:	02c0006f          	j	e4 <.L31>

000000bc <.L33>:
  bc:	00000097          	auipc	ra,0x0
  c0:	000080e7          	jalr	ra # bc <.L33>
  c4:	00050793          	mv	a5,a0
  c8:	00a00593          	li	a1,10
  cc:	00040513          	mv	a0,s0
  d0:	00f48023          	sb	a5,0(s1)
  d4:	00000097          	auipc	ra,0x0
  d8:	000080e7          	jalr	ra # d4 <.L33+0x18>
  dc:	00148493          	add	s1,s1,1
  e0:	00050413          	mv	s0,a0

000000e4 <.L31>:
  e4:	00a00593          	li	a1,10
  e8:	00040513          	mv	a0,s0
  ec:	fc0418e3          	bnez	s0,bc <.L33>
  f0:	fd2486e3          	beq	s1,s2,bc <.L33>
  f4:	06000737          	lui	a4,0x6000

000000f8 <.L35>:
  f8:	fff4c683          	lbu	a3,-1(s1)
  fc:	fff48493          	add	s1,s1,-1
 100:	03068693          	add	a3,a3,48
 104:	0ff6f693          	zext.b	a3,a3

00000108 <.L34>:
 108:	00072783          	lw	a5,0(a4) # 6000000 <.L50+0x5fffe58>
 10c:	fe078ee3          	beqz	a5,108 <.L34>
 110:	00d72023          	sw	a3,0(a4)
 114:	ff2492e3          	bne	s1,s2,f8 <.L35>
 118:	10c12083          	lw	ra,268(sp)
 11c:	10812403          	lw	s0,264(sp)
 120:	10412483          	lw	s1,260(sp)
 124:	10012903          	lw	s2,256(sp)
 128:	11010113          	add	sp,sp,272
 12c:	00008067          	ret

00000130 <print_hex>:
 130:	000005b7          	lui	a1,0x0
 134:	01c00693          	li	a3,28
 138:	00058593          	mv	a1,a1
 13c:	06000737          	lui	a4,0x6000
 140:	ffc00813          	li	a6,-4

00000144 <.L46>:
 144:	00d557b3          	srl	a5,a0,a3
 148:	00f7f793          	and	a5,a5,15
 14c:	00f587b3          	add	a5,a1,a5
 150:	0007c603          	lbu	a2,0(a5)

00000154 <.L45>:
 154:	00072783          	lw	a5,0(a4) # 6000000 <.L50+0x5fffe58>
 158:	fe078ee3          	beqz	a5,154 <.L45>
 15c:	00c72023          	sw	a2,0(a4)
 160:	ffc68693          	add	a3,a3,-4
 164:	ff0690e3          	bne	a3,a6,144 <.L46>
 168:	00008067          	ret

0000016c <print_hex_digits>:
 16c:	fff58693          	add	a3,a1,-1 # ffffffff <.L50+0xfffffe57>
 170:	00269693          	sll	a3,a3,0x2
 174:	0206ca63          	bltz	a3,1a8 <.L50>
 178:	000005b7          	lui	a1,0x0
 17c:	00058593          	mv	a1,a1
 180:	06000737          	lui	a4,0x6000

00000184 <.L53>:
 184:	00d557b3          	srl	a5,a0,a3
 188:	00f7f793          	and	a5,a5,15
 18c:	00f587b3          	add	a5,a1,a5
 190:	0007c603          	lbu	a2,0(a5)

00000194 <.L52>:
 194:	00072783          	lw	a5,0(a4) # 6000000 <.L50+0x5fffe58>
 198:	fe078ee3          	beqz	a5,194 <.L52>
 19c:	00c72023          	sw	a2,0(a4)
 1a0:	ffc68693          	add	a3,a3,-4
 1a4:	fe06d0e3          	bgez	a3,184 <.L53>

000001a8 <.L50>:
 1a8:	00008067          	ret

Disassembly of section .text:

00000000 <printf>:
   0:	fb010113          	add	sp,sp,-80
   4:	02812423          	sw	s0,40(sp)
   8:	04f12223          	sw	a5,68(sp)
   c:	02112623          	sw	ra,44(sp)
  10:	02b12a23          	sw	a1,52(sp)
  14:	02c12c23          	sw	a2,56(sp)
  18:	02d12e23          	sw	a3,60(sp)
  1c:	04e12023          	sw	a4,64(sp)
  20:	05012423          	sw	a6,72(sp)
  24:	05112623          	sw	a7,76(sp)
  28:	00050413          	mv	s0,a0
  2c:	00054503          	lbu	a0,0(a0)
  30:	03410793          	add	a5,sp,52
  34:	00f12623          	sw	a5,12(sp)
  38:	06050863          	beqz	a0,a8 <.L13>
  3c:	02912223          	sw	s1,36(sp)
  40:	03212023          	sw	s2,32(sp)
  44:	01312e23          	sw	s3,28(sp)
  48:	01412c23          	sw	s4,24(sp)
  4c:	01512a23          	sw	s5,20(sp)
  50:	02500493          	li	s1,37
  54:	07300913          	li	s2,115
  58:	07800993          	li	s3,120
  5c:	06400a13          	li	s4,100
  60:	06300a93          	li	s5,99

00000064 <.L2>:
  64:	04951c63          	bne	a0,s1,bc <.L3>
  68:	00144503          	lbu	a0,1(s0)
  6c:	07250063          	beq	a0,s2,cc <.L16>
  70:	09350a63          	beq	a0,s3,104 <.L17>
  74:	0b450663          	beq	a0,s4,120 <.L18>
  78:	07550863          	beq	a0,s5,e8 <.L19>
  7c:	00000097          	auipc	ra,0x0
  80:	000080e7          	jalr	ra # 7c <.L2+0x18>

00000084 <.L7>:
  84:	00140793          	add	a5,s0,1

00000088 <.L5>:
  88:	0017c503          	lbu	a0,1(a5)
  8c:	00178413          	add	s0,a5,1
  90:	fc051ae3          	bnez	a0,64 <.L2>
  94:	02412483          	lw	s1,36(sp)
  98:	02012903          	lw	s2,32(sp)
  9c:	01c12983          	lw	s3,28(sp)
  a0:	01812a03          	lw	s4,24(sp)
  a4:	01412a83          	lw	s5,20(sp)

000000a8 <.L13>:
  a8:	02c12083          	lw	ra,44(sp)
  ac:	02812403          	lw	s0,40(sp)
  b0:	00000513          	li	a0,0
  b4:	05010113          	add	sp,sp,80
  b8:	00008067          	ret

000000bc <.L3>:
  bc:	00000097          	auipc	ra,0x0
  c0:	000080e7          	jalr	ra # bc <.L3>
  c4:	00040793          	mv	a5,s0
  c8:	fc1ff06f          	j	88 <.L5>

000000cc <.L16>:
  cc:	00c12783          	lw	a5,12(sp)
  d0:	0007a503          	lw	a0,0(a5)
  d4:	00478793          	add	a5,a5,4
  d8:	00f12623          	sw	a5,12(sp)
  dc:	00000097          	auipc	ra,0x0
  e0:	000080e7          	jalr	ra # dc <.L16+0x10>
  e4:	fa1ff06f          	j	84 <.L7>

000000e8 <.L19>:
  e8:	00c12783          	lw	a5,12(sp)
  ec:	0007a503          	lw	a0,0(a5)
  f0:	00478793          	add	a5,a5,4
  f4:	00f12623          	sw	a5,12(sp)
  f8:	00000097          	auipc	ra,0x0
  fc:	000080e7          	jalr	ra # f8 <.L19+0x10>
 100:	f85ff06f          	j	84 <.L7>

00000104 <.L17>:
 104:	00c12783          	lw	a5,12(sp)
 108:	0007a503          	lw	a0,0(a5)
 10c:	00478793          	add	a5,a5,4
 110:	00f12623          	sw	a5,12(sp)
 114:	00000097          	auipc	ra,0x0
 118:	000080e7          	jalr	ra # 114 <.L17+0x10>
 11c:	f69ff06f          	j	84 <.L7>

00000120 <.L18>:
 120:	00c12783          	lw	a5,12(sp)
 124:	0007a503          	lw	a0,0(a5)
 128:	00478793          	add	a5,a5,4
 12c:	00f12623          	sw	a5,12(sp)
 130:	00000097          	auipc	ra,0x0
 134:	000080e7          	jalr	ra # 130 <.L18+0x10>
 138:	f4dff06f          	j	84 <.L7>

Disassembly of section .text:

00000000 <__clzsi2>:
   0:	00050693          	mv	a3,a0
   4:	00000513          	li	a0,0
   8:	0206c063          	bltz	a3,28 <.L1>
   c:	800007b7          	lui	a5,0x80000
  10:	02000613          	li	a2,32

00000014 <.L3>:
  14:	0017d793          	srl	a5,a5,0x1
  18:	00150513          	add	a0,a0,1
  1c:	00f6f733          	and	a4,a3,a5
  20:	00c50663          	beq	a0,a2,2c <.L7>
  24:	fe0708e3          	beqz	a4,14 <.L3>

00000028 <.L1>:
  28:	00008067          	ret

0000002c <.L7>:
  2c:	00008067          	ret

Disassembly of section .text:

00000000 <memcpy>:
   0:	00a5e7b3          	or	a5,a1,a0
   4:	0037f713          	and	a4,a5,3
   8:	00050793          	mv	a5,a0
   c:	02070263          	beqz	a4,30 <.L13>

00000010 <.L2>:
  10:	00c786b3          	add	a3,a5,a2
  14:	06060063          	beqz	a2,74 <.L14>

00000018 <.L7>:
  18:	0005c703          	lbu	a4,0(a1)
  1c:	00178793          	add	a5,a5,1
  20:	00158593          	add	a1,a1,1
  24:	fee78fa3          	sb	a4,-1(a5)
  28:	fef698e3          	bne	a3,a5,18 <.L7>
  2c:	00008067          	ret

00000030 <.L13>:
  30:	00300713          	li	a4,3
  34:	fcc77ee3          	bgeu	a4,a2,10 <.L2>
  38:	ffc60893          	add	a7,a2,-4
  3c:	ffc8f893          	and	a7,a7,-4
  40:	00488893          	add	a7,a7,4
  44:	011507b3          	add	a5,a0,a7
  48:	00058693          	mv	a3,a1
  4c:	00050713          	mv	a4,a0

00000050 <.L6>:
  50:	0006a803          	lw	a6,0(a3)
  54:	00470713          	add	a4,a4,4
  58:	00468693          	add	a3,a3,4
  5c:	ff072e23          	sw	a6,-4(a4)
  60:	fef718e3          	bne	a4,a5,50 <.L6>
  64:	00367613          	and	a2,a2,3
  68:	011585b3          	add	a1,a1,a7
  6c:	00c786b3          	add	a3,a5,a2
  70:	fa0614e3          	bnez	a2,18 <.L7>

00000074 <.L14>:
  74:	00008067          	ret

Disassembly of section .text:

00000000 <strcmp>:
   0:	00054783          	lbu	a5,0(a0)
   4:	00158593          	add	a1,a1,1
   8:	00150513          	add	a0,a0,1
   c:	fff5c703          	lbu	a4,-1(a1)
  10:	00078863          	beqz	a5,20 <.L7>
  14:	fee786e3          	beq	a5,a4,0 <strcmp>
  18:	40e78533          	sub	a0,a5,a4
  1c:	00008067          	ret

00000020 <.L7>:
  20:	40e00533          	neg	a0,a4
  24:	00008067          	ret

Disassembly of section .text:

00000000 <strlen>:
   0:	00054783          	lbu	a5,0(a0)
   4:	02078463          	beqz	a5,2c <.L8>
   8:	ff010113          	add	sp,sp,-16
   c:	00150513          	add	a0,a0,1
  10:	00112623          	sw	ra,12(sp)
  14:	00000097          	auipc	ra,0x0
  18:	000080e7          	jalr	ra # 14 <strlen+0x14>
  1c:	00c12083          	lw	ra,12(sp)
  20:	00150513          	add	a0,a0,1
  24:	01010113          	add	sp,sp,16
  28:	00008067          	ret

0000002c <.L8>:
  2c:	00000513          	li	a0,0
  30:	00008067          	ret

Disassembly of section .text:

00000000 <strncpy>:
   0:	ff010113          	add	sp,sp,-16
   4:	00812423          	sw	s0,8(sp)
   8:	00112623          	sw	ra,12(sp)
   c:	00050413          	mv	s0,a0
  10:	00000513          	li	a0,0
  14:	00061a63          	bnez	a2,28 <.L2>
  18:	0380006f          	j	50 <.L6>

0000001c <.L4>:
  1c:	00e68023          	sb	a4,0(a3)
  20:	00150513          	add	a0,a0,1
  24:	02a60663          	beq	a2,a0,50 <.L6>

00000028 <.L2>:
  28:	00a58733          	add	a4,a1,a0
  2c:	00074703          	lbu	a4,0(a4)
  30:	00a406b3          	add	a3,s0,a0
  34:	fe0714e3          	bnez	a4,1c <.L4>
  38:	00c57c63          	bgeu	a0,a2,50 <.L6>
  3c:	40a60633          	sub	a2,a2,a0
  40:	00000593          	li	a1,0
  44:	00068513          	mv	a0,a3
  48:	00000097          	auipc	ra,0x0
  4c:	000080e7          	jalr	ra # 48 <.L2+0x20>

00000050 <.L6>:
  50:	00c12083          	lw	ra,12(sp)
  54:	00040513          	mv	a0,s0
  58:	00812403          	lw	s0,8(sp)
  5c:	01010113          	add	sp,sp,16
  60:	00008067          	ret

Disassembly of section .text:

00000000 <memset>:
   0:	0ff5f593          	zext.b	a1,a1
   4:	00c50733          	add	a4,a0,a2
   8:	00050793          	mv	a5,a0
   c:	00060863          	beqz	a2,1c <.L7>

00000010 <.L3>:
  10:	00b78023          	sb	a1,0(a5)
  14:	00178793          	add	a5,a5,1
  18:	fef71ce3          	bne	a4,a5,10 <.L3>

0000001c <.L7>:
  1c:	00008067          	ret

Disassembly of section .text:

00000000 <random>:
   0:	ff010113          	add	sp,sp,-16
   4:	00812423          	sw	s0,8(sp)
   8:	00000437          	lui	s0,0x0
   c:	00042703          	lw	a4,0(s0) # 0 <random>
  10:	00025537          	lui	a0,0x25
  14:	d6950513          	add	a0,a0,-663 # 24d69 <random+0x24d69>
  18:	00271793          	sll	a5,a4,0x2
  1c:	00e787b3          	add	a5,a5,a4
  20:	00279793          	sll	a5,a5,0x2
  24:	00e787b3          	add	a5,a5,a4
  28:	00679693          	sll	a3,a5,0x6
  2c:	00d787b3          	add	a5,a5,a3
  30:	00e787b3          	add	a5,a5,a4
  34:	000ae5b7          	lui	a1,0xae
  38:	52958593          	add	a1,a1,1321 # ae529 <random+0xae529>
  3c:	00a78533          	add	a0,a5,a0
  40:	00112623          	sw	ra,12(sp)
  44:	00000097          	auipc	ra,0x0
  48:	000080e7          	jalr	ra # 44 <random+0x44>
  4c:	00c12083          	lw	ra,12(sp)
  50:	00a42023          	sw	a0,0(s0)
  54:	00812403          	lw	s0,8(sp)
  58:	01010113          	add	sp,sp,16
  5c:	00008067          	ret

Disassembly of section .text:

00000000 <strcpy>:
   0:	00050793          	mv	a5,a0

00000004 <.L2>:
   4:	0005c703          	lbu	a4,0(a1)
   8:	00178793          	add	a5,a5,1
   c:	00158593          	add	a1,a1,1
  10:	fee78fa3          	sb	a4,-1(a5)
  14:	fe0718e3          	bnez	a4,4 <.L2>
  18:	00008067          	ret

Disassembly of section .text:

00000000 <strncmp>:
   0:	02060263          	beqz	a2,24 <.L6>

00000004 <.L14>:
   4:	00054783          	lbu	a5,0(a0)
   8:	fff60613          	add	a2,a2,-1
   c:	02078063          	beqz	a5,2c <.L4>
  10:	0005c703          	lbu	a4,0(a1)
  14:	00f71c63          	bne	a4,a5,2c <.L4>
  18:	00150513          	add	a0,a0,1
  1c:	00158593          	add	a1,a1,1
  20:	fe0612e3          	bnez	a2,4 <.L14>

00000024 <.L6>:
  24:	00000513          	li	a0,0
  28:	00008067          	ret

0000002c <.L4>:
  2c:	00054503          	lbu	a0,0(a0)
  30:	0005c783          	lbu	a5,0(a1)
  34:	40f50533          	sub	a0,a0,a5
  38:	00008067          	ret

Disassembly of section .text:

00000000 <__mulsi3>:
   0:	00050613          	mv	a2,a0
   4:	00000513          	li	a0,0

00000008 <.L1>:
   8:	0015f693          	and	a3,a1,1
   c:	00068463          	beqz	a3,14 <.L2>
  10:	00c50533          	add	a0,a0,a2

00000014 <.L2>:
  14:	0015d593          	srl	a1,a1,0x1
  18:	00161613          	sll	a2,a2,0x1
  1c:	fe0596e3          	bnez	a1,8 <.L1>
  20:	00008067          	ret

Disassembly of section .text:

00000000 <__divsi3>:
   0:	06054063          	bltz	a0,60 <.L10>
   4:	0605c663          	bltz	a1,70 <.L11>

00000008 <__udivsi3>:
   8:	00058613          	mv	a2,a1
   c:	00050593          	mv	a1,a0
  10:	fff00513          	li	a0,-1
  14:	02060c63          	beqz	a2,4c <.L5>
  18:	00100693          	li	a3,1
  1c:	00b67a63          	bgeu	a2,a1,30 <.L2>

00000020 <.L1>:
  20:	00c05863          	blez	a2,30 <.L2>
  24:	00161613          	sll	a2,a2,0x1
  28:	00169693          	sll	a3,a3,0x1
  2c:	feb66ae3          	bltu	a2,a1,20 <.L1>

00000030 <.L2>:
  30:	00000513          	li	a0,0

00000034 <.L3>:
  34:	00c5e663          	bltu	a1,a2,40 <.L4>
  38:	40c585b3          	sub	a1,a1,a2
  3c:	00d56533          	or	a0,a0,a3

00000040 <.L4>:
  40:	0016d693          	srl	a3,a3,0x1
  44:	00165613          	srl	a2,a2,0x1
  48:	fe0696e3          	bnez	a3,34 <.L3>

0000004c <.L5>:
  4c:	00008067          	ret

00000050 <__umodsi3>:
  50:	00008293          	mv	t0,ra
  54:	fb5ff0ef          	jal	8 <__udivsi3>
  58:	00058513          	mv	a0,a1
  5c:	00028067          	jr	t0

00000060 <.L10>:
  60:	40a00533          	neg	a0,a0
  64:	0005d863          	bgez	a1,74 <.L12>
  68:	40b005b3          	neg	a1,a1
  6c:	f95ff06f          	j	0 <__divsi3>

00000070 <.L11>:
  70:	40b005b3          	neg	a1,a1

00000074 <.L12>:
  74:	00008293          	mv	t0,ra
  78:	f89ff0ef          	jal	0 <__divsi3>
  7c:	40a00533          	neg	a0,a0
  80:	00028067          	jr	t0

00000084 <__modsi3>:
  84:	00008293          	mv	t0,ra
  88:	0005ca63          	bltz	a1,9c <.L31>
  8c:	00054c63          	bltz	a0,a4 <.L32>

00000090 <.L30>:
  90:	f79ff0ef          	jal	8 <__udivsi3>
  94:	00058513          	mv	a0,a1
  98:	00028067          	jr	t0

0000009c <.L31>:
  9c:	40b005b3          	neg	a1,a1
  a0:	fe0558e3          	bgez	a0,90 <.L30>

000000a4 <.L32>:
  a4:	40a00533          	neg	a0,a0
  a8:	f61ff0ef          	jal	8 <__udivsi3>
  ac:	40b00533          	neg	a0,a1
  b0:	00028067          	jr	t0
