
./bin/riscv_logo.elf:     file format elf32-littleriscv


Disassembly of section .text:

00000000 <start>:
   0:	004001b7          	lui	gp,0x400
   4:	00020137          	lui	sp,0x20
   8:	000047b7          	lui	a5,0x4
   c:	0d000737          	lui	a4,0xd000
  10:	40078793          	add	a5,a5,1024 # 4400 <__modsi3+0x3bc4>
  14:	00f72023          	sw	a5,0(a4) # d000000 <IO_BASE+0xcc00000>
  18:	224000ef          	jal	23c <main>
  1c:	0d000737          	lui	a4,0xd000
  20:	04400793          	li	a5,68
  24:	00f72023          	sw	a5,0(a4) # d000000 <IO_BASE+0xcc00000>
  28:	00100073          	ebreak

0000002c <loop>:
  2c:	000000ef          	jal	2c <loop>

00000030 <draw_hline_left>:
  30:	fe010113          	add	sp,sp,-32 # 1ffe0 <riscv_96x64_map+0xff34>
  34:	00812c23          	sw	s0,24(sp)
  38:	05f00413          	li	s0,95
  3c:	00112e23          	sw	ra,28(sp)
  40:	40b40433          	sub	s0,s0,a1
  44:	04b44e63          	blt	s0,a1,a0 <draw_hline_left+0x70>
  48:	01212823          	sw	s2,16(sp)
  4c:	00151913          	sll	s2,a0,0x1
  50:	01412423          	sw	s4,8(sp)
  54:	00a90933          	add	s2,s2,a0
  58:	0007aa37          	lui	s4,0x7a
  5c:	00912a23          	sw	s1,20(sp)
  60:	01312623          	sw	s3,12(sp)
  64:	00058493          	mv	s1,a1
  68:	00060993          	mv	s3,a2
  6c:	00591913          	sll	s2,s2,0x5
  70:	120a0a13          	add	s4,s4,288 # 7a120 <riscv_96x64_map+0x6a074>
  74:	01240533          	add	a0,s0,s2
  78:	00098593          	mv	a1,s3
  7c:	61c000ef          	jal	698 <set_pixel>
  80:	000a0513          	mv	a0,s4
  84:	fff40413          	add	s0,s0,-1
  88:	654000ef          	jal	6dc <sleep_cycles>
  8c:	fe9454e3          	bge	s0,s1,74 <draw_hline_left+0x44>
  90:	01412483          	lw	s1,20(sp)
  94:	01012903          	lw	s2,16(sp)
  98:	00c12983          	lw	s3,12(sp)
  9c:	00812a03          	lw	s4,8(sp)
  a0:	01c12083          	lw	ra,28(sp)
  a4:	01812403          	lw	s0,24(sp)
  a8:	02010113          	add	sp,sp,32
  ac:	00008067          	ret

000000b0 <draw_hline_right>:
  b0:	fe010113          	add	sp,sp,-32
  b4:	06000793          	li	a5,96
  b8:	00912a23          	sw	s1,20(sp)
  bc:	00112e23          	sw	ra,28(sp)
  c0:	00151493          	sll	s1,a0,0x1
  c4:	40b787b3          	sub	a5,a5,a1
  c8:	00a484b3          	add	s1,s1,a0
  cc:	04f5d863          	bge	a1,a5,11c <draw_hline_right+0x6c>
  d0:	00549493          	sll	s1,s1,0x5
  d4:	01312623          	sw	s3,12(sp)
  d8:	0007a9b7          	lui	s3,0x7a
  dc:	00812c23          	sw	s0,24(sp)
  e0:	01212823          	sw	s2,16(sp)
  e4:	00b48433          	add	s0,s1,a1
  e8:	00060913          	mv	s2,a2
  ec:	00f484b3          	add	s1,s1,a5
  f0:	12098993          	add	s3,s3,288 # 7a120 <riscv_96x64_map+0x6a074>
  f4:	00040513          	mv	a0,s0
  f8:	00090593          	mv	a1,s2
  fc:	59c000ef          	jal	698 <set_pixel>
 100:	00098513          	mv	a0,s3
 104:	00140413          	add	s0,s0,1
 108:	5d4000ef          	jal	6dc <sleep_cycles>
 10c:	fe9414e3          	bne	s0,s1,f4 <draw_hline_right+0x44>
 110:	01812403          	lw	s0,24(sp)
 114:	01012903          	lw	s2,16(sp)
 118:	00c12983          	lw	s3,12(sp)
 11c:	01c12083          	lw	ra,28(sp)
 120:	01412483          	lw	s1,20(sp)
 124:	02010113          	add	sp,sp,32
 128:	00008067          	ret

0000012c <draw_vline_down>:
 12c:	fe010113          	add	sp,sp,-32
 130:	00812c23          	sw	s0,24(sp)
 134:	00159413          	sll	s0,a1,0x1
 138:	01212823          	sw	s2,16(sp)
 13c:	00b40433          	add	s0,s0,a1
 140:	04000913          	li	s2,64
 144:	00541413          	sll	s0,s0,0x5
 148:	00112e23          	sw	ra,28(sp)
 14c:	40b90933          	sub	s2,s2,a1
 150:	00a40433          	add	s0,s0,a0
 154:	0525d663          	bge	a1,s2,1a0 <draw_vline_down+0x74>
 158:	01412423          	sw	s4,8(sp)
 15c:	0007aa37          	lui	s4,0x7a
 160:	00912a23          	sw	s1,20(sp)
 164:	01312623          	sw	s3,12(sp)
 168:	00058493          	mv	s1,a1
 16c:	00060993          	mv	s3,a2
 170:	120a0a13          	add	s4,s4,288 # 7a120 <riscv_96x64_map+0x6a074>
 174:	00040513          	mv	a0,s0
 178:	00098593          	mv	a1,s3
 17c:	51c000ef          	jal	698 <set_pixel>
 180:	000a0513          	mv	a0,s4
 184:	00148493          	add	s1,s1,1
 188:	06040413          	add	s0,s0,96
 18c:	550000ef          	jal	6dc <sleep_cycles>
 190:	ff2492e3          	bne	s1,s2,174 <draw_vline_down+0x48>
 194:	01412483          	lw	s1,20(sp)
 198:	00c12983          	lw	s3,12(sp)
 19c:	00812a03          	lw	s4,8(sp)
 1a0:	01c12083          	lw	ra,28(sp)
 1a4:	01812403          	lw	s0,24(sp)
 1a8:	01012903          	lw	s2,16(sp)
 1ac:	02010113          	add	sp,sp,32
 1b0:	00008067          	ret

000001b4 <draw_vline_up>:
 1b4:	fe010113          	add	sp,sp,-32
 1b8:	00912a23          	sw	s1,20(sp)
 1bc:	03f00493          	li	s1,63
 1c0:	40b484b3          	sub	s1,s1,a1
 1c4:	00812c23          	sw	s0,24(sp)
 1c8:	00149413          	sll	s0,s1,0x1
 1cc:	00940433          	add	s0,s0,s1
 1d0:	00541413          	sll	s0,s0,0x5
 1d4:	00112e23          	sw	ra,28(sp)
 1d8:	00a40433          	add	s0,s0,a0
 1dc:	04b4c663          	blt	s1,a1,228 <draw_vline_up+0x74>
 1e0:	01412423          	sw	s4,8(sp)
 1e4:	0007aa37          	lui	s4,0x7a
 1e8:	01212823          	sw	s2,16(sp)
 1ec:	01312623          	sw	s3,12(sp)
 1f0:	00058913          	mv	s2,a1
 1f4:	00060993          	mv	s3,a2
 1f8:	120a0a13          	add	s4,s4,288 # 7a120 <riscv_96x64_map+0x6a074>
 1fc:	00040513          	mv	a0,s0
 200:	00098593          	mv	a1,s3
 204:	494000ef          	jal	698 <set_pixel>
 208:	000a0513          	mv	a0,s4
 20c:	fff48493          	add	s1,s1,-1
 210:	fa040413          	add	s0,s0,-96
 214:	4c8000ef          	jal	6dc <sleep_cycles>
 218:	ff24d2e3          	bge	s1,s2,1fc <draw_vline_up+0x48>
 21c:	01012903          	lw	s2,16(sp)
 220:	00c12983          	lw	s3,12(sp)
 224:	00812a03          	lw	s4,8(sp)
 228:	01c12083          	lw	ra,28(sp)
 22c:	01812403          	lw	s0,24(sp)
 230:	01412483          	lw	s1,20(sp)
 234:	02010113          	add	sp,sp,32
 238:	00008067          	ret

0000023c <main>:
 23c:	fd010113          	add	sp,sp,-48
 240:	02812423          	sw	s0,40(sp)
 244:	00010437          	lui	s0,0x10
 248:	00040513          	mv	a0,s0
 24c:	02112623          	sw	ra,44(sp)
 250:	02912223          	sw	s1,36(sp)
 254:	03212023          	sw	s2,32(sp)
 258:	01312e23          	sw	s3,28(sp)
 25c:	01412c23          	sw	s4,24(sp)
 260:	01512a23          	sw	s5,20(sp)
 264:	01612823          	sw	s6,16(sp)
 268:	01712623          	sw	s7,12(sp)
 26c:	01812423          	sw	s8,8(sp)
 270:	01912223          	sw	s9,4(sp)
 274:	1d4000ef          	jal	448 <print_string>
 278:	00010537          	lui	a0,0x10
 27c:	00850513          	add	a0,a0,8 # 10008 <__modsi3+0xf7cc>
 280:	1c8000ef          	jal	448 <print_string>
 284:	00040513          	mv	a0,s0
 288:	1c0000ef          	jal	448 <print_string>
 28c:	00010537          	lui	a0,0x10
 290:	02850513          	add	a0,a0,40 # 10028 <__modsi3+0xf7ec>
 294:	1b4000ef          	jal	448 <print_string>
 298:	00010537          	lui	a0,0x10
 29c:	03850513          	add	a0,a0,56 # 10038 <__modsi3+0xf7fc>
 2a0:	1a8000ef          	jal	448 <print_string>
 2a4:	00010537          	lui	a0,0x10
 2a8:	04050513          	add	a0,a0,64 # 10040 <__modsi3+0xf804>
 2ac:	19c000ef          	jal	448 <print_string>
 2b0:	00010537          	lui	a0,0x10
 2b4:	03c50513          	add	a0,a0,60 # 1003c <__modsi3+0xf800>
 2b8:	190000ef          	jal	448 <print_string>
 2bc:	00010537          	lui	a0,0x10
 2c0:	04c50513          	add	a0,a0,76 # 1004c <__modsi3+0xf810>
 2c4:	184000ef          	jal	448 <print_string>
 2c8:	00010537          	lui	a0,0x10
 2cc:	00450513          	add	a0,a0,4 # 10004 <__modsi3+0xf7c8>
 2d0:	178000ef          	jal	448 <print_string>
 2d4:	00040513          	mv	a0,s0
 2d8:	170000ef          	jal	448 <print_string>
 2dc:	3d0000ef          	jal	6ac <clear_screen>
 2e0:	00010537          	lui	a0,0x10
 2e4:	05850513          	add	a0,a0,88 # 10058 <__modsi3+0xf81c>
 2e8:	00002937          	lui	s2,0x2
 2ec:	000104b7          	lui	s1,0x10
 2f0:	158000ef          	jal	448 <print_string>
 2f4:	0ac48493          	add	s1,s1,172 # 100ac <riscv_96x64_map>
 2f8:	00000413          	li	s0,0
 2fc:	80090913          	add	s2,s2,-2048 # 1800 <__modsi3+0xfc4>
 300:	0004d583          	lhu	a1,0(s1)
 304:	00040513          	mv	a0,s0
 308:	00140413          	add	s0,s0,1 # 10001 <__modsi3+0xf7c5>
 30c:	38c000ef          	jal	698 <set_pixel>
 310:	00248493          	add	s1,s1,2
 314:	ff2416e3          	bne	s0,s2,300 <main+0xc4>
 318:	00010537          	lui	a0,0x10
 31c:	00001937          	lui	s2,0x1
 320:	07050513          	add	a0,a0,112 # 10070 <__modsi3+0xf834>
 324:	00002a37          	lui	s4,0x2
 328:	79f90913          	add	s2,s2,1951 # 179f <__modsi3+0xf63>
 32c:	0007a4b7          	lui	s1,0x7a
 330:	00001bb7          	lui	s7,0x1
 334:	114000ef          	jal	448 <print_string>
 338:	06000a93          	li	s5,96
 33c:	85fa0a13          	add	s4,s4,-1953 # 185f <__modsi3+0x1023>
 340:	fa000993          	li	s3,-96
 344:	00000b13          	li	s6,0
 348:	12048493          	add	s1,s1,288 # 7a120 <riscv_96x64_map+0x6a074>
 34c:	7feb8b93          	add	s7,s7,2046 # 17fe <__modsi3+0xfc2>
 350:	00090c93          	mv	s9,s2
 354:	02000c13          	li	s8,32
 358:	06098413          	add	s0,s3,96
 35c:	00040513          	mv	a0,s0
 360:	00000593          	li	a1,0
 364:	334000ef          	jal	698 <set_pixel>
 368:	00048513          	mv	a0,s1
 36c:	00140413          	add	s0,s0,1
 370:	36c000ef          	jal	6dc <sleep_cycles>
 374:	ff5414e3          	bne	s0,s5,35c <main+0x120>
 378:	412b8433          	sub	s0,s7,s2
 37c:	00040513          	mv	a0,s0
 380:	00000593          	li	a1,0
 384:	314000ef          	jal	698 <set_pixel>
 388:	06040413          	add	s0,s0,96
 38c:	00048513          	mv	a0,s1
 390:	34c000ef          	jal	6dc <sleep_cycles>
 394:	ff4414e3          	bne	s0,s4,37c <main+0x140>
 398:	413c8433          	sub	s0,s9,s3
 39c:	00040513          	mv	a0,s0
 3a0:	00000593          	li	a1,0
 3a4:	2f4000ef          	jal	698 <set_pixel>
 3a8:	00048513          	mv	a0,s1
 3ac:	fff40413          	add	s0,s0,-1
 3b0:	32c000ef          	jal	6dc <sleep_cycles>
 3b4:	ff2414e3          	bne	s0,s2,39c <main+0x160>
 3b8:	00190413          	add	s0,s2,1
 3bc:	00040513          	mv	a0,s0
 3c0:	00000593          	li	a1,0
 3c4:	2d4000ef          	jal	698 <set_pixel>
 3c8:	fa040413          	add	s0,s0,-96
 3cc:	00048513          	mv	a0,s1
 3d0:	30c000ef          	jal	6dc <sleep_cycles>
 3d4:	ff3414e3          	bne	s0,s3,3bc <main+0x180>
 3d8:	001b0b13          	add	s6,s6,1
 3dc:	06140993          	add	s3,s0,97
 3e0:	fa190913          	add	s2,s2,-95
 3e4:	f9fa0a13          	add	s4,s4,-97
 3e8:	05fa8a93          	add	s5,s5,95
 3ec:	f78b16e3          	bne	s6,s8,358 <main+0x11c>
 3f0:	00010537          	lui	a0,0x10
 3f4:	09450513          	add	a0,a0,148 # 10094 <__modsi3+0xf858>
 3f8:	050000ef          	jal	448 <print_string>
 3fc:	02c12083          	lw	ra,44(sp)
 400:	02812403          	lw	s0,40(sp)
 404:	02412483          	lw	s1,36(sp)
 408:	02012903          	lw	s2,32(sp)
 40c:	01c12983          	lw	s3,28(sp)
 410:	01812a03          	lw	s4,24(sp)
 414:	01412a83          	lw	s5,20(sp)
 418:	01012b03          	lw	s6,16(sp)
 41c:	00c12b83          	lw	s7,12(sp)
 420:	00812c03          	lw	s8,8(sp)
 424:	00412c83          	lw	s9,4(sp)
 428:	00000513          	li	a0,0
 42c:	03010113          	add	sp,sp,48
 430:	00008067          	ret

00000434 <putchar>:
 434:	06000737          	lui	a4,0x6000
 438:	00072783          	lw	a5,0(a4) # 6000000 <IO_BASE+0x5c00000>
 43c:	fe078ee3          	beqz	a5,438 <putchar+0x4>
 440:	00a72023          	sw	a0,0(a4)
 444:	00008067          	ret

00000448 <print_string>:
 448:	00054683          	lbu	a3,0(a0)
 44c:	02068063          	beqz	a3,46c <print_string+0x24>
 450:	06000737          	lui	a4,0x6000
 454:	00072783          	lw	a5,0(a4) # 6000000 <IO_BASE+0x5c00000>
 458:	fe078ee3          	beqz	a5,454 <print_string+0xc>
 45c:	00d72023          	sw	a3,0(a4)
 460:	00154683          	lbu	a3,1(a0)
 464:	00150513          	add	a0,a0,1
 468:	fe0696e3          	bnez	a3,454 <print_string+0xc>
 46c:	00008067          	ret

00000470 <puts>:
 470:	00054683          	lbu	a3,0(a0)
 474:	02068063          	beqz	a3,494 <puts+0x24>
 478:	06000737          	lui	a4,0x6000
 47c:	00072783          	lw	a5,0(a4) # 6000000 <IO_BASE+0x5c00000>
 480:	fe078ee3          	beqz	a5,47c <puts+0xc>
 484:	00d72023          	sw	a3,0(a4)
 488:	00154683          	lbu	a3,1(a0)
 48c:	00150513          	add	a0,a0,1
 490:	fe0696e3          	bnez	a3,47c <puts+0xc>
 494:	06000737          	lui	a4,0x6000
 498:	00072783          	lw	a5,0(a4) # 6000000 <IO_BASE+0x5c00000>
 49c:	fe078ee3          	beqz	a5,498 <puts+0x28>
 4a0:	00a00793          	li	a5,10
 4a4:	00f72023          	sw	a5,0(a4)
 4a8:	00100513          	li	a0,1
 4ac:	00008067          	ret

000004b0 <print_dec>:
 4b0:	ef010113          	add	sp,sp,-272
 4b4:	10812423          	sw	s0,264(sp)
 4b8:	10112623          	sw	ra,268(sp)
 4bc:	10912223          	sw	s1,260(sp)
 4c0:	11212023          	sw	s2,256(sp)
 4c4:	00050413          	mv	s0,a0
 4c8:	06000737          	lui	a4,0x6000
 4cc:	00055c63          	bgez	a0,4e4 <print_dec+0x34>
 4d0:	00072783          	lw	a5,0(a4) # 6000000 <IO_BASE+0x5c00000>
 4d4:	fe078ee3          	beqz	a5,4d0 <print_dec+0x20>
 4d8:	02d00793          	li	a5,45
 4dc:	00f72023          	sw	a5,0(a4)
 4e0:	40800433          	neg	s0,s0
 4e4:	00010913          	mv	s2,sp
 4e8:	00090493          	mv	s1,s2
 4ec:	0240006f          	j	510 <print_dec+0x60>
 4f0:	34c000ef          	jal	83c <__modsi3>
 4f4:	00050793          	mv	a5,a0
 4f8:	00a00593          	li	a1,10
 4fc:	00040513          	mv	a0,s0
 500:	00f48023          	sb	a5,0(s1)
 504:	2b4000ef          	jal	7b8 <__divsi3>
 508:	00148493          	add	s1,s1,1
 50c:	00050413          	mv	s0,a0
 510:	00a00593          	li	a1,10
 514:	00040513          	mv	a0,s0
 518:	fc041ce3          	bnez	s0,4f0 <print_dec+0x40>
 51c:	fd248ae3          	beq	s1,s2,4f0 <print_dec+0x40>
 520:	06000737          	lui	a4,0x6000
 524:	fff4c683          	lbu	a3,-1(s1)
 528:	fff48493          	add	s1,s1,-1
 52c:	03068693          	add	a3,a3,48
 530:	0ff6f693          	zext.b	a3,a3
 534:	00072783          	lw	a5,0(a4) # 6000000 <IO_BASE+0x5c00000>
 538:	fe078ee3          	beqz	a5,534 <print_dec+0x84>
 53c:	00d72023          	sw	a3,0(a4)
 540:	ff2492e3          	bne	s1,s2,524 <print_dec+0x74>
 544:	10c12083          	lw	ra,268(sp)
 548:	10812403          	lw	s0,264(sp)
 54c:	10412483          	lw	s1,260(sp)
 550:	10012903          	lw	s2,256(sp)
 554:	11010113          	add	sp,sp,272
 558:	00008067          	ret

0000055c <print_hex_digits>:
 55c:	000137b7          	lui	a5,0x13
 560:	0ac78793          	add	a5,a5,172 # 130ac <riscv_96x64_map+0x3000>
 564:	0007a883          	lw	a7,0(a5)
 568:	0047a803          	lw	a6,4(a5)
 56c:	0087a603          	lw	a2,8(a5)
 570:	00c7a703          	lw	a4,12(a5)
 574:	0107c783          	lbu	a5,16(a5)
 578:	fe010113          	add	sp,sp,-32
 57c:	fff58693          	add	a3,a1,-1
 580:	01112623          	sw	a7,12(sp)
 584:	01012823          	sw	a6,16(sp)
 588:	00c12a23          	sw	a2,20(sp)
 58c:	00e12c23          	sw	a4,24(sp)
 590:	00f10e23          	sb	a5,28(sp)
 594:	00269693          	sll	a3,a3,0x2
 598:	0206c863          	bltz	a3,5c8 <print_hex_digits+0x6c>
 59c:	06000737          	lui	a4,0x6000
 5a0:	00d557b3          	srl	a5,a0,a3
 5a4:	00f7f793          	and	a5,a5,15
 5a8:	02078793          	add	a5,a5,32
 5ac:	002787b3          	add	a5,a5,sp
 5b0:	fec7c603          	lbu	a2,-20(a5)
 5b4:	00072783          	lw	a5,0(a4) # 6000000 <IO_BASE+0x5c00000>
 5b8:	fe078ee3          	beqz	a5,5b4 <print_hex_digits+0x58>
 5bc:	00c72023          	sw	a2,0(a4)
 5c0:	ffc68693          	add	a3,a3,-4
 5c4:	fc06dee3          	bgez	a3,5a0 <print_hex_digits+0x44>
 5c8:	02010113          	add	sp,sp,32
 5cc:	00008067          	ret

000005d0 <print_hex>:
 5d0:	000137b7          	lui	a5,0x13
 5d4:	0ac78793          	add	a5,a5,172 # 130ac <riscv_96x64_map+0x3000>
 5d8:	0007a583          	lw	a1,0(a5)
 5dc:	0087a683          	lw	a3,8(a5)
 5e0:	00c7a703          	lw	a4,12(a5)
 5e4:	0047a603          	lw	a2,4(a5)
 5e8:	0107c783          	lbu	a5,16(a5)
 5ec:	fe010113          	add	sp,sp,-32
 5f0:	00b12623          	sw	a1,12(sp)
 5f4:	00d12a23          	sw	a3,20(sp)
 5f8:	00e12c23          	sw	a4,24(sp)
 5fc:	00c12823          	sw	a2,16(sp)
 600:	00f10e23          	sb	a5,28(sp)
 604:	01c00693          	li	a3,28
 608:	06000737          	lui	a4,0x6000
 60c:	ffc00593          	li	a1,-4
 610:	00d557b3          	srl	a5,a0,a3
 614:	00f7f793          	and	a5,a5,15
 618:	02078793          	add	a5,a5,32
 61c:	002787b3          	add	a5,a5,sp
 620:	fec7c603          	lbu	a2,-20(a5)
 624:	00072783          	lw	a5,0(a4) # 6000000 <IO_BASE+0x5c00000>
 628:	fe078ee3          	beqz	a5,624 <print_hex+0x54>
 62c:	00c72023          	sw	a2,0(a4)
 630:	ffc68693          	add	a3,a3,-4
 634:	fcb69ee3          	bne	a3,a1,610 <print_hex+0x40>
 638:	02010113          	add	sp,sp,32
 63c:	00008067          	ret

00000640 <pixel>:
 640:	000087b7          	lui	a5,0x8
 644:	c0078793          	add	a5,a5,-1024 # 7c00 <__modsi3+0x73c4>
 648:	00259593          	sll	a1,a1,0x2
 64c:	00761613          	sll	a2,a2,0x7
 650:	00f67633          	and	a2,a2,a5
 654:	3e05f593          	and	a1,a1,992
 658:	40355513          	sra	a0,a0,0x3
 65c:	00c5e5b3          	or	a1,a1,a2
 660:	01f57513          	and	a0,a0,31
 664:	00a5e533          	or	a0,a1,a0
 668:	00008067          	ret

0000066c <set_12b_from_16b>:
 66c:	000016b7          	lui	a3,0x1
 670:	00355793          	srl	a5,a0,0x3
 674:	40455713          	sra	a4,a0,0x4
 678:	f0068693          	add	a3,a3,-256 # f00 <__modsi3+0x6c4>
 67c:	00d77733          	and	a4,a4,a3
 680:	0f07f793          	and	a5,a5,240
 684:	40155513          	sra	a0,a0,0x1
 688:	00e7e7b3          	or	a5,a5,a4
 68c:	00f57513          	and	a0,a0,15
 690:	00a7e533          	or	a0,a5,a0
 694:	00008067          	ret

00000698 <set_pixel>:
 698:	00251513          	sll	a0,a0,0x2
 69c:	0b0007b7          	lui	a5,0xb000
 6a0:	00a787b3          	add	a5,a5,a0
 6a4:	00b7a023          	sw	a1,0(a5) # b000000 <IO_BASE+0xac00000>
 6a8:	00008067          	ret

000006ac <clear_screen>:
 6ac:	0b0007b7          	lui	a5,0xb000
 6b0:	0b006737          	lui	a4,0xb006
 6b4:	0007a023          	sw	zero,0(a5) # b000000 <IO_BASE+0xac00000>
 6b8:	00478793          	add	a5,a5,4
 6bc:	fee79ce3          	bne	a5,a4,6b4 <clear_screen+0x8>
 6c0:	00008067          	ret

000006c4 <get_cycles>:
 6c4:	0c0007b7          	lui	a5,0xc000
 6c8:	0007a503          	lw	a0,0(a5) # c000000 <IO_BASE+0xbc00000>
 6cc:	00008067          	ret

000006d0 <time>:
 6d0:	0c0007b7          	lui	a5,0xc000
 6d4:	0007a503          	lw	a0,0(a5) # c000000 <IO_BASE+0xbc00000>
 6d8:	00008067          	ret

000006dc <sleep_cycles>:
 6dc:	0c000737          	lui	a4,0xc000
 6e0:	00470713          	add	a4,a4,4 # c000004 <IO_BASE+0xbc00004>
 6e4:	00a72023          	sw	a0,0(a4)
 6e8:	00072783          	lw	a5,0(a4)
 6ec:	fe079ee3          	bnez	a5,6e8 <sleep_cycles+0xc>
 6f0:	00008067          	ret

000006f4 <sleep_us>:
 6f4:	00151793          	sll	a5,a0,0x1
 6f8:	00a787b3          	add	a5,a5,a0
 6fc:	00379793          	sll	a5,a5,0x3
 700:	0c000737          	lui	a4,0xc000
 704:	00a787b3          	add	a5,a5,a0
 708:	00279793          	sll	a5,a5,0x2
 70c:	00470713          	add	a4,a4,4 # c000004 <IO_BASE+0xbc00004>
 710:	00f72023          	sw	a5,0(a4)
 714:	00072783          	lw	a5,0(a4)
 718:	fe079ee3          	bnez	a5,714 <sleep_us+0x20>
 71c:	00008067          	ret

00000720 <sleep_ms>:
 720:	00151793          	sll	a5,a0,0x1
 724:	00a787b3          	add	a5,a5,a0
 728:	00679713          	sll	a4,a5,0x6
 72c:	00e787b3          	add	a5,a5,a4
 730:	00279793          	sll	a5,a5,0x2
 734:	00a787b3          	add	a5,a5,a0
 738:	00279793          	sll	a5,a5,0x2
 73c:	0c000737          	lui	a4,0xc000
 740:	00a787b3          	add	a5,a5,a0
 744:	00579793          	sll	a5,a5,0x5
 748:	00470713          	add	a4,a4,4 # c000004 <IO_BASE+0xbc00004>
 74c:	00f72023          	sw	a5,0(a4)
 750:	00072783          	lw	a5,0(a4)
 754:	fe079ee3          	bnez	a5,750 <sleep_ms+0x30>
 758:	00008067          	ret

0000075c <sleep>:
 75c:	00151793          	sll	a5,a0,0x1
 760:	00a787b3          	add	a5,a5,a0
 764:	00679793          	sll	a5,a5,0x6
 768:	40a787b3          	sub	a5,a5,a0
 76c:	00279793          	sll	a5,a5,0x2
 770:	40a787b3          	sub	a5,a5,a0
 774:	00479793          	sll	a5,a5,0x4
 778:	40a787b3          	sub	a5,a5,a0
 77c:	00579793          	sll	a5,a5,0x5
 780:	0c000737          	lui	a4,0xc000
 784:	00a787b3          	add	a5,a5,a0
 788:	00879793          	sll	a5,a5,0x8
 78c:	00470713          	add	a4,a4,4 # c000004 <IO_BASE+0xbc00004>
 790:	00f72023          	sw	a5,0(a4)
 794:	00072783          	lw	a5,0(a4)
 798:	fe079ee3          	bnez	a5,794 <sleep+0x38>
 79c:	00008067          	ret

000007a0 <start_timer>:
 7a0:	0c0007b7          	lui	a5,0xc000
 7a4:	00a7a223          	sw	a0,4(a5) # c000004 <IO_BASE+0xbc00004>
 7a8:	00008067          	ret

000007ac <is_timer_finished>:
 7ac:	0c0007b7          	lui	a5,0xc000
 7b0:	0047a703          	lw	a4,4(a5) # c000004 <IO_BASE+0xbc00004>
 7b4:	00008067          	ret

000007b8 <__divsi3>:
 7b8:	06054063          	bltz	a0,818 <__umodsi3+0x10>
 7bc:	0605c663          	bltz	a1,828 <__umodsi3+0x20>

000007c0 <__udivsi3>:
 7c0:	00058613          	mv	a2,a1
 7c4:	00050593          	mv	a1,a0
 7c8:	fff00513          	li	a0,-1
 7cc:	02060c63          	beqz	a2,804 <__udivsi3+0x44>
 7d0:	00100693          	li	a3,1
 7d4:	00b67a63          	bgeu	a2,a1,7e8 <__udivsi3+0x28>
 7d8:	00c05863          	blez	a2,7e8 <__udivsi3+0x28>
 7dc:	00161613          	sll	a2,a2,0x1
 7e0:	00169693          	sll	a3,a3,0x1
 7e4:	feb66ae3          	bltu	a2,a1,7d8 <__udivsi3+0x18>
 7e8:	00000513          	li	a0,0
 7ec:	00c5e663          	bltu	a1,a2,7f8 <__udivsi3+0x38>
 7f0:	40c585b3          	sub	a1,a1,a2
 7f4:	00d56533          	or	a0,a0,a3
 7f8:	0016d693          	srl	a3,a3,0x1
 7fc:	00165613          	srl	a2,a2,0x1
 800:	fe0696e3          	bnez	a3,7ec <__udivsi3+0x2c>
 804:	00008067          	ret

00000808 <__umodsi3>:
 808:	00008293          	mv	t0,ra
 80c:	fb5ff0ef          	jal	7c0 <__udivsi3>
 810:	00058513          	mv	a0,a1
 814:	00028067          	jr	t0
 818:	40a00533          	neg	a0,a0
 81c:	0005d863          	bgez	a1,82c <__umodsi3+0x24>
 820:	40b005b3          	neg	a1,a1
 824:	f95ff06f          	j	7b8 <__divsi3>
 828:	40b005b3          	neg	a1,a1
 82c:	00008293          	mv	t0,ra
 830:	f89ff0ef          	jal	7b8 <__divsi3>
 834:	40a00533          	neg	a0,a0
 838:	00028067          	jr	t0

0000083c <__modsi3>:
 83c:	00008293          	mv	t0,ra
 840:	0005ca63          	bltz	a1,854 <__modsi3+0x18>
 844:	00054c63          	bltz	a0,85c <__modsi3+0x20>
 848:	f79ff0ef          	jal	7c0 <__udivsi3>
 84c:	00058513          	mv	a0,a1
 850:	00028067          	jr	t0
 854:	40b005b3          	neg	a1,a1
 858:	fe0558e3          	bgez	a0,848 <__modsi3+0xc>
 85c:	40a00533          	neg	a0,a0
 860:	f61ff0ef          	jal	7c0 <__udivsi3>
 864:	40b00533          	neg	a0,a1
 868:	00028067          	jr	t0
