
./bin/riscv_logo.elf:     file format elf32-littleriscv


Disassembly of section .text:

00000000 <start>:
   0:	004001b7          	lui	gp,0x400
   4:	00020137          	lui	sp,0x20
   8:	008000ef          	jal	10 <main>
   c:	00100073          	ebreak

00000010 <main>:
  10:	00010537          	lui	a0,0x10
  14:	fe010113          	add	sp,sp,-32 # 1ffe0 <__modsi3+0x1fba4>
  18:	00050513          	mv	a0,a0
  1c:	00112e23          	sw	ra,28(sp)
  20:	00812c23          	sw	s0,24(sp)
  24:	00912a23          	sw	s1,20(sp)
  28:	01212823          	sw	s2,16(sp)
  2c:	01312623          	sw	s3,12(sp)
  30:	190000ef          	jal	1c0 <print_string>
  34:	00010537          	lui	a0,0x10
  38:	03050513          	add	a0,a0,48 # 10030 <__modsi3+0xfbf4>
  3c:	184000ef          	jal	1c0 <print_string>
  40:	00010537          	lui	a0,0x10
  44:	06050513          	add	a0,a0,96 # 10060 <__modsi3+0xfc24>
  48:	178000ef          	jal	1c0 <print_string>
  4c:	00010537          	lui	a0,0x10
  50:	09050513          	add	a0,a0,144 # 10090 <__modsi3+0xfc54>
  54:	00010437          	lui	s0,0x10
  58:	168000ef          	jal	1c0 <print_string>
  5c:	0c040513          	add	a0,s0,192 # 100c0 <__modsi3+0xfc84>
  60:	160000ef          	jal	1c0 <print_string>
  64:	0c040513          	add	a0,s0,192
  68:	158000ef          	jal	1c0 <print_string>
  6c:	0c040513          	add	a0,s0,192
  70:	150000ef          	jal	1c0 <print_string>
  74:	00010537          	lui	a0,0x10
  78:	0f050513          	add	a0,a0,240 # 100f0 <__modsi3+0xfcb4>
  7c:	144000ef          	jal	1c0 <print_string>
  80:	00010537          	lui	a0,0x10
  84:	12050513          	add	a0,a0,288 # 10120 <__modsi3+0xfce4>
  88:	138000ef          	jal	1c0 <print_string>
  8c:	00010537          	lui	a0,0x10
  90:	15050513          	add	a0,a0,336 # 10150 <__modsi3+0xfd14>
  94:	12c000ef          	jal	1c0 <print_string>
  98:	00010537          	lui	a0,0x10
  9c:	18050513          	add	a0,a0,384 # 10180 <__modsi3+0xfd44>
  a0:	120000ef          	jal	1c0 <print_string>
  a4:	00010537          	lui	a0,0x10
  a8:	1b050513          	add	a0,a0,432 # 101b0 <__modsi3+0xfd74>
  ac:	114000ef          	jal	1c0 <print_string>
  b0:	00010537          	lui	a0,0x10
  b4:	1e050513          	add	a0,a0,480 # 101e0 <__modsi3+0xfda4>
  b8:	108000ef          	jal	1c0 <print_string>
  bc:	00010537          	lui	a0,0x10
  c0:	21050513          	add	a0,a0,528 # 10210 <__modsi3+0xfdd4>
  c4:	0fc000ef          	jal	1c0 <print_string>
  c8:	00010537          	lui	a0,0x10
  cc:	24050513          	add	a0,a0,576 # 10240 <__modsi3+0xfe04>
  d0:	0f0000ef          	jal	1c0 <print_string>
  d4:	00010537          	lui	a0,0x10
  d8:	27050513          	add	a0,a0,624 # 10270 <__modsi3+0xfe34>
  dc:	0e4000ef          	jal	1c0 <print_string>
  e0:	00010537          	lui	a0,0x10
  e4:	2a050513          	add	a0,a0,672 # 102a0 <__modsi3+0xfe64>
  e8:	0d8000ef          	jal	1c0 <print_string>
  ec:	00010537          	lui	a0,0x10
  f0:	2d050513          	add	a0,a0,720 # 102d0 <__modsi3+0xfe94>
  f4:	0cc000ef          	jal	1c0 <print_string>
  f8:	00010537          	lui	a0,0x10
  fc:	30050513          	add	a0,a0,768 # 10300 <__modsi3+0xfec4>
 100:	0c0000ef          	jal	1c0 <print_string>
 104:	00010537          	lui	a0,0x10
 108:	33050513          	add	a0,a0,816 # 10330 <__modsi3+0xfef4>
 10c:	0b4000ef          	jal	1c0 <print_string>
 110:	00010537          	lui	a0,0x10
 114:	36050513          	add	a0,a0,864 # 10360 <__modsi3+0xff24>
 118:	0a8000ef          	jal	1c0 <print_string>
 11c:	c0202473          	rdinstret	s0
 120:	c0002973          	rdcycle	s2
 124:	000109b7          	lui	s3,0x10
 128:	39098513          	add	a0,s3,912 # 10390 <__modsi3+0xff54>
 12c:	094000ef          	jal	1c0 <print_string>
 130:	00090513          	mv	a0,s2
 134:	214000ef          	jal	348 <print_hex>
 138:	00a00513          	li	a0,10
 13c:	070000ef          	jal	1ac <putchar>
 140:	000104b7          	lui	s1,0x10
 144:	39c48513          	add	a0,s1,924 # 1039c <__modsi3+0xff60>
 148:	078000ef          	jal	1c0 <print_string>
 14c:	00040513          	mv	a0,s0
 150:	1f8000ef          	jal	348 <print_hex>
 154:	00a00513          	li	a0,10
 158:	054000ef          	jal	1ac <putchar>
 15c:	39098513          	add	a0,s3,912
 160:	060000ef          	jal	1c0 <print_string>
 164:	00090513          	mv	a0,s2
 168:	0c0000ef          	jal	228 <print_dec>
 16c:	00a00513          	li	a0,10
 170:	03c000ef          	jal	1ac <putchar>
 174:	39c48513          	add	a0,s1,924
 178:	048000ef          	jal	1c0 <print_string>
 17c:	00040513          	mv	a0,s0
 180:	0a8000ef          	jal	228 <print_dec>
 184:	00a00513          	li	a0,10
 188:	024000ef          	jal	1ac <putchar>
 18c:	01c12083          	lw	ra,28(sp)
 190:	01812403          	lw	s0,24(sp)
 194:	01412483          	lw	s1,20(sp)
 198:	01012903          	lw	s2,16(sp)
 19c:	00c12983          	lw	s3,12(sp)
 1a0:	00000513          	li	a0,0
 1a4:	02010113          	add	sp,sp,32
 1a8:	00008067          	ret

000001ac <putchar>:
 1ac:	06000737          	lui	a4,0x6000
 1b0:	00072783          	lw	a5,0(a4) # 6000000 <IO_BASE+0x5c00000>
 1b4:	fe078ee3          	beqz	a5,1b0 <putchar+0x4>
 1b8:	00a72023          	sw	a0,0(a4)
 1bc:	00008067          	ret

000001c0 <print_string>:
 1c0:	00054683          	lbu	a3,0(a0)
 1c4:	02068063          	beqz	a3,1e4 <print_string+0x24>
 1c8:	06000737          	lui	a4,0x6000
 1cc:	00072783          	lw	a5,0(a4) # 6000000 <IO_BASE+0x5c00000>
 1d0:	fe078ee3          	beqz	a5,1cc <print_string+0xc>
 1d4:	00d72023          	sw	a3,0(a4)
 1d8:	00154683          	lbu	a3,1(a0)
 1dc:	00150513          	add	a0,a0,1
 1e0:	fe0696e3          	bnez	a3,1cc <print_string+0xc>
 1e4:	00008067          	ret

000001e8 <puts>:
 1e8:	00054683          	lbu	a3,0(a0)
 1ec:	02068063          	beqz	a3,20c <puts+0x24>
 1f0:	06000737          	lui	a4,0x6000
 1f4:	00072783          	lw	a5,0(a4) # 6000000 <IO_BASE+0x5c00000>
 1f8:	fe078ee3          	beqz	a5,1f4 <puts+0xc>
 1fc:	00d72023          	sw	a3,0(a4)
 200:	00154683          	lbu	a3,1(a0)
 204:	00150513          	add	a0,a0,1
 208:	fe0696e3          	bnez	a3,1f4 <puts+0xc>
 20c:	06000737          	lui	a4,0x6000
 210:	00072783          	lw	a5,0(a4) # 6000000 <IO_BASE+0x5c00000>
 214:	fe078ee3          	beqz	a5,210 <puts+0x28>
 218:	00a00793          	li	a5,10
 21c:	00f72023          	sw	a5,0(a4)
 220:	00100513          	li	a0,1
 224:	00008067          	ret

00000228 <print_dec>:
 228:	ef010113          	add	sp,sp,-272
 22c:	10812423          	sw	s0,264(sp)
 230:	10112623          	sw	ra,268(sp)
 234:	10912223          	sw	s1,260(sp)
 238:	11212023          	sw	s2,256(sp)
 23c:	00050413          	mv	s0,a0
 240:	06000737          	lui	a4,0x6000
 244:	00055c63          	bgez	a0,25c <print_dec+0x34>
 248:	00072783          	lw	a5,0(a4) # 6000000 <IO_BASE+0x5c00000>
 24c:	fe078ee3          	beqz	a5,248 <print_dec+0x20>
 250:	02d00793          	li	a5,45
 254:	00f72023          	sw	a5,0(a4)
 258:	40800433          	neg	s0,s0
 25c:	00010913          	mv	s2,sp
 260:	00090493          	mv	s1,s2
 264:	0240006f          	j	288 <print_dec+0x60>
 268:	1d4000ef          	jal	43c <__modsi3>
 26c:	00050793          	mv	a5,a0
 270:	00a00593          	li	a1,10
 274:	00040513          	mv	a0,s0
 278:	00f48023          	sb	a5,0(s1)
 27c:	13c000ef          	jal	3b8 <__divsi3>
 280:	00148493          	add	s1,s1,1
 284:	00050413          	mv	s0,a0
 288:	00a00593          	li	a1,10
 28c:	00040513          	mv	a0,s0
 290:	fc041ce3          	bnez	s0,268 <print_dec+0x40>
 294:	fd248ae3          	beq	s1,s2,268 <print_dec+0x40>
 298:	06000737          	lui	a4,0x6000
 29c:	fff4c683          	lbu	a3,-1(s1)
 2a0:	fff48493          	add	s1,s1,-1
 2a4:	03068693          	add	a3,a3,48
 2a8:	0ff6f693          	zext.b	a3,a3
 2ac:	00072783          	lw	a5,0(a4) # 6000000 <IO_BASE+0x5c00000>
 2b0:	fe078ee3          	beqz	a5,2ac <print_dec+0x84>
 2b4:	00d72023          	sw	a3,0(a4)
 2b8:	ff2492e3          	bne	s1,s2,29c <print_dec+0x74>
 2bc:	10c12083          	lw	ra,268(sp)
 2c0:	10812403          	lw	s0,264(sp)
 2c4:	10412483          	lw	s1,260(sp)
 2c8:	10012903          	lw	s2,256(sp)
 2cc:	11010113          	add	sp,sp,272
 2d0:	00008067          	ret

000002d4 <print_hex_digits>:
 2d4:	000107b7          	lui	a5,0x10
 2d8:	3a878793          	add	a5,a5,936 # 103a8 <__modsi3+0xff6c>
 2dc:	0007a883          	lw	a7,0(a5)
 2e0:	0047a803          	lw	a6,4(a5)
 2e4:	0087a603          	lw	a2,8(a5)
 2e8:	00c7a703          	lw	a4,12(a5)
 2ec:	0107c783          	lbu	a5,16(a5)
 2f0:	fe010113          	add	sp,sp,-32
 2f4:	fff58693          	add	a3,a1,-1
 2f8:	01112623          	sw	a7,12(sp)
 2fc:	01012823          	sw	a6,16(sp)
 300:	00c12a23          	sw	a2,20(sp)
 304:	00e12c23          	sw	a4,24(sp)
 308:	00f10e23          	sb	a5,28(sp)
 30c:	00269693          	sll	a3,a3,0x2
 310:	0206c863          	bltz	a3,340 <print_hex_digits+0x6c>
 314:	06000737          	lui	a4,0x6000
 318:	00d557b3          	srl	a5,a0,a3
 31c:	00f7f793          	and	a5,a5,15
 320:	02078793          	add	a5,a5,32
 324:	002787b3          	add	a5,a5,sp
 328:	fec7c603          	lbu	a2,-20(a5)
 32c:	00072783          	lw	a5,0(a4) # 6000000 <IO_BASE+0x5c00000>
 330:	fe078ee3          	beqz	a5,32c <print_hex_digits+0x58>
 334:	00c72023          	sw	a2,0(a4)
 338:	ffc68693          	add	a3,a3,-4
 33c:	fc06dee3          	bgez	a3,318 <print_hex_digits+0x44>
 340:	02010113          	add	sp,sp,32
 344:	00008067          	ret

00000348 <print_hex>:
 348:	000107b7          	lui	a5,0x10
 34c:	3a878793          	add	a5,a5,936 # 103a8 <__modsi3+0xff6c>
 350:	0007a583          	lw	a1,0(a5)
 354:	0087a683          	lw	a3,8(a5)
 358:	00c7a703          	lw	a4,12(a5)
 35c:	0047a603          	lw	a2,4(a5)
 360:	0107c783          	lbu	a5,16(a5)
 364:	fe010113          	add	sp,sp,-32
 368:	00b12623          	sw	a1,12(sp)
 36c:	00d12a23          	sw	a3,20(sp)
 370:	00e12c23          	sw	a4,24(sp)
 374:	00c12823          	sw	a2,16(sp)
 378:	00f10e23          	sb	a5,28(sp)
 37c:	01c00693          	li	a3,28
 380:	06000737          	lui	a4,0x6000
 384:	ffc00593          	li	a1,-4
 388:	00d557b3          	srl	a5,a0,a3
 38c:	00f7f793          	and	a5,a5,15
 390:	02078793          	add	a5,a5,32
 394:	002787b3          	add	a5,a5,sp
 398:	fec7c603          	lbu	a2,-20(a5)
 39c:	00072783          	lw	a5,0(a4) # 6000000 <IO_BASE+0x5c00000>
 3a0:	fe078ee3          	beqz	a5,39c <print_hex+0x54>
 3a4:	00c72023          	sw	a2,0(a4)
 3a8:	ffc68693          	add	a3,a3,-4
 3ac:	fcb69ee3          	bne	a3,a1,388 <print_hex+0x40>
 3b0:	02010113          	add	sp,sp,32
 3b4:	00008067          	ret

000003b8 <__divsi3>:
 3b8:	06054063          	bltz	a0,418 <__umodsi3+0x10>
 3bc:	0605c663          	bltz	a1,428 <__umodsi3+0x20>

000003c0 <__udivsi3>:
 3c0:	00058613          	mv	a2,a1
 3c4:	00050593          	mv	a1,a0
 3c8:	fff00513          	li	a0,-1
 3cc:	02060c63          	beqz	a2,404 <__udivsi3+0x44>
 3d0:	00100693          	li	a3,1
 3d4:	00b67a63          	bgeu	a2,a1,3e8 <__udivsi3+0x28>
 3d8:	00c05863          	blez	a2,3e8 <__udivsi3+0x28>
 3dc:	00161613          	sll	a2,a2,0x1
 3e0:	00169693          	sll	a3,a3,0x1
 3e4:	feb66ae3          	bltu	a2,a1,3d8 <__udivsi3+0x18>
 3e8:	00000513          	li	a0,0
 3ec:	00c5e663          	bltu	a1,a2,3f8 <__udivsi3+0x38>
 3f0:	40c585b3          	sub	a1,a1,a2
 3f4:	00d56533          	or	a0,a0,a3
 3f8:	0016d693          	srl	a3,a3,0x1
 3fc:	00165613          	srl	a2,a2,0x1
 400:	fe0696e3          	bnez	a3,3ec <__udivsi3+0x2c>
 404:	00008067          	ret

00000408 <__umodsi3>:
 408:	00008293          	mv	t0,ra
 40c:	fb5ff0ef          	jal	3c0 <__udivsi3>
 410:	00058513          	mv	a0,a1
 414:	00028067          	jr	t0
 418:	40a00533          	neg	a0,a0
 41c:	0005d863          	bgez	a1,42c <__umodsi3+0x24>
 420:	40b005b3          	neg	a1,a1
 424:	f95ff06f          	j	3b8 <__divsi3>
 428:	40b005b3          	neg	a1,a1
 42c:	00008293          	mv	t0,ra
 430:	f89ff0ef          	jal	3b8 <__divsi3>
 434:	40a00533          	neg	a0,a0
 438:	00028067          	jr	t0

0000043c <__modsi3>:
 43c:	00008293          	mv	t0,ra
 440:	0005ca63          	bltz	a1,454 <__modsi3+0x18>
 444:	00054c63          	bltz	a0,45c <__modsi3+0x20>
 448:	f79ff0ef          	jal	3c0 <__udivsi3>
 44c:	00058513          	mv	a0,a1
 450:	00028067          	jr	t0
 454:	40b005b3          	neg	a1,a1
 458:	fe0558e3          	bgez	a0,448 <__modsi3+0xc>
 45c:	40a00533          	neg	a0,a0
 460:	f61ff0ef          	jal	3c0 <__udivsi3>
 464:	40b00533          	neg	a0,a1
 468:	00028067          	jr	t0
